; ModuleID = '53/1616.c'
source_filename = "53/1616.c"
target datalayout = "e-m:e-p270:32:32-p271:32:32-p272:64:64-i64:64-f80:128-n8:16:32:64-S128"
target triple = "x86_64-pc-linux-gnu"

@.str = private unnamed_addr constant [3 x i8] c"%d\00", align 1
@.str.1 = private unnamed_addr constant [4 x i8] c",%d\00", align 1

; Function Attrs: noinline nounwind uwtable
define dso_local i32 @main() #0 {
  %1 = alloca i32, align 4
  %2 = alloca [300 x i32], align 16
  %3 = alloca i32, align 4
  %4 = alloca i32, align 4
  %5 = alloca i32, align 4
  store i32 0, i32* %1, align 4
  %6 = call i32 (i8*, ...) @__isoc99_scanf(i8* getelementptr inbounds ([3 x i8], [3 x i8]* @.str, i64 0, i64 0), i32* %3)
  store i32 0, i32* %5, align 4
  br label %7

7:                                                ; preds = %41, %0
  %8 = load i32, i32* %5, align 4
  %9 = load i32, i32* %3, align 4
  %10 = sub nsw i32 %9, 1
  %11 = icmp sle i32 %8, %10
  br i1 %11, label %12, label %44

12:                                               ; preds = %7
  %13 = load i32, i32* %5, align 4
  %14 = sext i32 %13 to i64
  %15 = getelementptr inbounds [300 x i32], [300 x i32]* %2, i64 0, i64 %14
  %16 = call i32 (i8*, ...) @__isoc99_scanf(i8* getelementptr inbounds ([3 x i8], [3 x i8]* @.str, i64 0, i64 0), i32* %15)
  store i32 0, i32* %4, align 4
  br label %17

17:                                               ; preds = %37, %12
  %18 = load i32, i32* %4, align 4
  %19 = load i32, i32* %5, align 4
  %20 = sub nsw i32 %19, 1
  %21 = icmp sle i32 %18, %20
  br i1 %21, label %22, label %40

22:                                               ; preds = %17
  %23 = load i32, i32* %4, align 4
  %24 = sext i32 %23 to i64
  %25 = getelementptr inbounds [300 x i32], [300 x i32]* %2, i64 0, i64 %24
  %26 = load i32, i32* %25, align 4
  %27 = load i32, i32* %5, align 4
  %28 = sext i32 %27 to i64
  %29 = getelementptr inbounds [300 x i32], [300 x i32]* %2, i64 0, i64 %28
  %30 = load i32, i32* %29, align 4
  %31 = icmp eq i32 %26, %30
  br i1 %31, label %32, label %36

32:                                               ; preds = %22
  %33 = load i32, i32* %5, align 4
  %34 = sext i32 %33 to i64
  %35 = getelementptr inbounds [300 x i32], [300 x i32]* %2, i64 0, i64 %34
  store i32 -100, i32* %35, align 4
  br label %36

36:                                               ; preds = %32, %22
  br label %37

37:                                               ; preds = %36
  %38 = load i32, i32* %4, align 4
  %39 = add nsw i32 %38, 1
  store i32 %39, i32* %4, align 4
  br label %17

40:                                               ; preds = %17
  br label %41

41:                                               ; preds = %40
  %42 = load i32, i32* %5, align 4
  %43 = add nsw i32 %42, 1
  store i32 %43, i32* %5, align 4
  br label %7

44:                                               ; preds = %7
  store i32 0, i32* %5, align 4
  br label %45

45:                                               ; preds = %73, %44
  %46 = load i32, i32* %5, align 4
  %47 = load i32, i32* %3, align 4
  %48 = sub nsw i32 %47, 1
  %49 = icmp sle i32 %46, %48
  br i1 %49, label %50, label %76

50:                                               ; preds = %45
  %51 = load i32, i32* %5, align 4
  %52 = icmp eq i32 %51, 0
  br i1 %52, label %53, label %59

53:                                               ; preds = %50
  %54 = load i32, i32* %5, align 4
  %55 = sext i32 %54 to i64
  %56 = getelementptr inbounds [300 x i32], [300 x i32]* %2, i64 0, i64 %55
  %57 = load i32, i32* %56, align 4
  %58 = call i32 (i8*, ...) @printf(i8* getelementptr inbounds ([3 x i8], [3 x i8]* @.str, i64 0, i64 0), i32 %57)
  br label %72

59:                                               ; preds = %50
  %60 = load i32, i32* %5, align 4
  %61 = sext i32 %60 to i64
  %62 = getelementptr inbounds [300 x i32], [300 x i32]* %2, i64 0, i64 %61
  %63 = load i32, i32* %62, align 4
  %64 = icmp ne i32 %63, -100
  br i1 %64, label %65, label %71

65:                                               ; preds = %59
  %66 = load i32, i32* %5, align 4
  %67 = sext i32 %66 to i64
  %68 = getelementptr inbounds [300 x i32], [300 x i32]* %2, i64 0, i64 %67
  %69 = load i32, i32* %68, align 4
  %70 = call i32 (i8*, ...) @printf(i8* getelementptr inbounds ([4 x i8], [4 x i8]* @.str.1, i64 0, i64 0), i32 %69)
  br label %71

71:                                               ; preds = %65, %59
  br label %72

72:                                               ; preds = %71, %53
  br label %73

73:                                               ; preds = %72
  %74 = load i32, i32* %5, align 4
  %75 = add nsw i32 %74, 1
  store i32 %75, i32* %5, align 4
  br label %45

76:                                               ; preds = %45
  ret i32 0
}

declare dso_local i32 @__isoc99_scanf(i8*, ...) #1

declare dso_local i32 @printf(i8*, ...) #1


!llvm.module.flags = !{!0}
!llvm.ident = !{!1}

!0 = !{i32 1, !"wchar_size", i32 4}
!1 = !{!"clang version 10.0.0-4ubuntu1 "}
